target datalayout = "e-m:e-p270:32:32-p271:32:32-p272:64:64-i64:64-i128:128-f80:128-n8:16:32:64-S128"
target triple = "x86_64-pc-linux-gnu"

%"class.std::__cxx11::basic_string" = type { %"struct.std::__cxx11::basic_string<char>::_Alloc_hider", i64, %union.anon }
%"struct.std::__cxx11::basic_string<char>::_Alloc_hider" = type { ptr }
%union.anon = type { i64, [8 x i8] }
%"class.cmComputeLinkInformation::FeatureDescriptor" = type { %"class.std::__cxx11::basic_string", i8, %"class.std::__cxx11::basic_string", %"class.std::__cxx11::basic_string", %"class.std::__cxx11::basic_string", %"class.std::__cxx11::basic_string" }
%"class.(anonymous namespace)::FeaturePlaceHolderExpander" = type { %class.cmPlaceholderExpander, ptr, ptr, ptr }
%class.cmPlaceholderExpander = type { ptr }

@_ZTV21cmPlaceholderExpander = linkonce_odr dso_local unnamed_addr constant { [5 x ptr] } { [5 x ptr] [ptr null, ptr @_ZTI21cmPlaceholderExpander, ptr @_ZN21cmPlaceholderExpanderD2Ev, ptr @_ZN21cmPlaceholderExpanderD0Ev, ptr @__cxa_pure_virtual] }, comdat, align 8

; Function Attrs: mustprogress nounwind uwtable
define linkonce_odr dso_local void @_ZN21cmPlaceholderExpanderD2Ev(ptr noundef nonnull align 8 dereferenceable(8) %0) unnamed_addr #5 comdat align 2 {
  %2 = alloca ptr, align 8
  store ptr %0, ptr %2, align 8
  ret void
}

; Function Attrs: mustprogress nounwind uwtable
define linkonce_odr dso_local void @_ZN21cmPlaceholderExpanderC2Ev(ptr noundef nonnull align 8 dereferenceable(8) %0) unnamed_addr #5 comdat align 2 {
  %2 = alloca ptr, align 8
  store ptr %0, ptr %2, align 8
  %3 = load ptr, ptr %2, align 8
  store ptr getelementptr inbounds ({ [5 x ptr] }, ptr @_ZTV21cmPlaceholderExpander, i32 0, i32 0, i32 2), ptr %3, align 8
  ret void
}

; Function Attrs: mustprogress nounwind uwtable
define internal void @_ZN12_GLOBAL__N_126FeaturePlaceHolderExpanderD2Ev(ptr noundef nonnull align 8 dereferenceable(32) %0) unnamed_addr #5 align 2 {
  %2 = alloca ptr, align 8
  store ptr %0, ptr %2, align 8
  %3 = load ptr, ptr %2, align 8
  call void @_ZN21cmPlaceholderExpanderD2Ev(ptr noundef nonnull align 8 dereferenceable(8) %3) #3
  ret void
}

; Function Attrs: mustprogress nounwind uwtable
define internal void @_ZN12_GLOBAL__N_126FeaturePlaceHolderExpanderC2EPKNSt7__cxx1112basic_stringIcSt11char_traitsIcESaIcEEES8_S8_(ptr noundef nonnull align 8 dereferenceable(32) %0, ptr noundef %1, ptr noundef %2, ptr noundef %3) unnamed_addr #5 align 2 {
  %5 = alloca ptr, align 8
  %6 = alloca ptr, align 8
  %7 = alloca ptr, align 8
  %8 = alloca ptr, align 8
  store ptr %0, ptr %5, align 8
  store ptr %1, ptr %6, align 8
  store ptr %2, ptr %7, align 8
  store ptr %3, ptr %8, align 8
  %9 = load ptr, ptr %5, align 8
  call void @_ZN21cmPlaceholderExpanderC2Ev(ptr noundef nonnull align 8 dereferenceable(8) %9) #3
  store ptr getelementptr inbounds ({ [5 x ptr] }, ptr @_ZTVN12_GLOBAL__N_126FeaturePlaceHolderExpanderE, i32 0, i32 0, i32 2), ptr %9, align 8
  %10 = getelementptr inbounds %"class.(anonymous namespace)::FeaturePlaceHolderExpander", ptr %9, i32 0, i32 1
  %11 = load ptr, ptr %6, align 8
  store ptr %11, ptr %10, align 8
  %12 = getelementptr inbounds %"class.(anonymous namespace)::FeaturePlaceHolderExpander", ptr %9, i32 0, i32 2
  %13 = load ptr, ptr %7, align 8
  store ptr %13, ptr %12, align 8
  %14 = getelementptr inbounds %"class.(anonymous namespace)::FeaturePlaceHolderExpander", ptr %9, i32 0, i32 3
  %15 = load ptr, ptr %8, align 8
  store ptr %15, ptr %14, align 8
  ret void
}

; Function Attrs: mustprogress uwtable
define dso_local void @_ZNK24cmComputeLinkInformation17FeatureDescriptor16GetDecoratedItemERKNSt7__cxx1112basic_stringIcSt11char_traitsIcESaIcEEES8_S8_NS_10ItemIsPathE(ptr dead_on_unwind noalias writable sret(%"class.std::__cxx11::basic_string") align 8 %0, ptr noundef nonnull align 8 dereferenceable(168) %1, ptr noundef nonnull align 8 dereferenceable(32) %2, ptr noundef nonnull align 8 dereferenceable(32) %3, ptr noundef nonnull align 8 dereferenceable(32) %4, i32 noundef %5) #4 align 2 personality ptr @__gxx_personality_v0 {
  %7 = alloca ptr, align 8
  %8 = alloca ptr, align 8
  %9 = alloca ptr, align 8
  %10 = alloca ptr, align 8
  %11 = alloca ptr, align 8
  %12 = alloca i32, align 4
  %13 = alloca %"class.std::__cxx11::basic_string", align 8
  %14 = alloca %"class.(anonymous namespace)::FeaturePlaceHolderExpander", align 8
  %15 = alloca ptr, align 8
  %16 = alloca i32, align 4
  store ptr %0, ptr %7, align 8
  store ptr %1, ptr %8, align 8
  store ptr %2, ptr %9, align 8
  store ptr %3, ptr %10, align 8
  store ptr %4, ptr %11, align 8
  store i32 %5, ptr %12, align 4
  %17 = load ptr, ptr %8, align 8
  %18 = load i32, ptr %12, align 4
  %19 = icmp eq i32 %18, 1
  br i1 %19, label %20, label %22

20:                                               ; preds = %6
  %21 = getelementptr inbounds %"class.cmComputeLinkInformation::FeatureDescriptor", ptr %17, i32 0, i32 4
  br label %24

22:                                               ; preds = %6
  %23 = getelementptr inbounds %"class.cmComputeLinkInformation::FeatureDescriptor", ptr %17, i32 0, i32 5
  br label %24

24:                                               ; preds = %22, %20
  %25 = phi ptr [ %21, %20 ], [ %23, %22 ]
  call void @_ZNSt7__cxx1112basic_stringIcSt11char_traitsIcESaIcEEC1ERKS4_(ptr noundef nonnull align 8 dereferenceable(32) %13, ptr noundef nonnull align 8 dereferenceable(32) %25)
  %26 = load ptr, ptr %9, align 8
  %27 = load ptr, ptr %10, align 8
  %28 = load ptr, ptr %11, align 8
  invoke void @_ZN12_GLOBAL__N_126FeaturePlaceHolderExpanderC2EPKNSt7__cxx1112basic_stringIcSt11char_traitsIcESaIcEEES8_S8_(ptr noundef nonnull align 8 dereferenceable(32) %14, ptr noundef %26, ptr noundef %27, ptr noundef %28)
          to label %29 unwind label %33

29:                                               ; preds = %24
  %30 = invoke noundef nonnull align 8 dereferenceable(32) ptr @_ZN21cmPlaceholderExpander15ExpandVariablesERNSt7__cxx1112basic_stringIcSt11char_traitsIcESaIcEEE(ptr noundef nonnull align 8 dereferenceable(8) %14, ptr noundef nonnull align 8 dereferenceable(32) %13)
          to label %31 unwind label %37

31:                                               ; preds = %29
  invoke void @_ZNSt7__cxx1112basic_stringIcSt11char_traitsIcESaIcEEC1ERKS4_(ptr noundef nonnull align 8 dereferenceable(32) %0, ptr noundef nonnull align 8 dereferenceable(32) %30)
          to label %32 unwind label %37

32:                                               ; preds = %31
  call void @_ZN12_GLOBAL__N_126FeaturePlaceHolderExpanderD2Ev(ptr noundef nonnull align 8 dereferenceable(32) %14) #3
  call void @_ZNSt7__cxx1112basic_stringIcSt11char_traitsIcESaIcEED1Ev(ptr noundef nonnull align 8 dereferenceable(32) %13) #3
  ret void

33:                                               ; preds = %24
  %34 = landingpad { ptr, i32 }
          cleanup
  %35 = extractvalue { ptr, i32 } %34, 0
  store ptr %35, ptr %15, align 8
  %36 = extractvalue { ptr, i32 } %34, 1
  store i32 %36, ptr %16, align 4
  br label %41

37:                                               ; preds = %31, %29
  %38 = landingpad { ptr, i32 }
          cleanup
  %39 = extractvalue { ptr, i32 } %38, 0
  store ptr %39, ptr %15, align 8
  %40 = extractvalue { ptr, i32 } %38, 1
  store i32 %40, ptr %16, align 4
  call void @_ZN12_GLOBAL__N_126FeaturePlaceHolderExpanderD2Ev(ptr noundef nonnull align 8 dereferenceable(32) %14) #3
  br label %41

41:                                               ; preds = %37, %33
  call void @_ZNSt7__cxx1112basic_stringIcSt11char_traitsIcESaIcEED1Ev(ptr noundef nonnull align 8 dereferenceable(32) %13) #3
  br label %42

42:                                               ; preds = %41
  %43 = load ptr, ptr %15, align 8
  %44 = load i32, ptr %16, align 4
  %45 = insertvalue { ptr, i32 } poison, ptr %43, 0
  %46 = insertvalue { ptr, i32 } %45, i32 %44, 1
  resume { ptr, i32 } %46
}