; Function Attrs: mustprogress uwtable
define dso_local void @_ZNK24cmComputeLinkInformation17FeatureDescriptor16GetDecoratedItemERKNSt7__cxx1112basic_stringIcSt11char_traitsIcESaIcEEES8_S8_NS_10ItemIsPathE(ptr dead_on_unwind noalias writable sret(%"class.std::__cxx11::basic_string") align 8 %0, ptr noundef nonnull align 8 dereferenceable(168) %1, ptr noundef nonnull align 8 dereferenceable(32) %2, ptr noundef nonnull align 8 dereferenceable(32) %3, ptr noundef nonnull align 8 dereferenceable(32) %4, i32 noundef %5) local_unnamed_addr #3 align 2 personality ptr @__gxx_personality_v0 {
  %7 = alloca %"class.std::__cxx11::basic_string", align 8
  %8 = alloca %"class.(anonymous namespace)::FeaturePlaceHolderExpander", align 8
  %9 = icmp eq i32 %5, 1
  %.v = select i1 %9, i64 104, i64 136
  %10 = getelementptr inbounds i8, ptr %1, i64 %.v
  call void @_ZNSt7__cxx1112basic_stringIcSt11char_traitsIcESaIcEEC1ERKS4_(ptr noundef nonnull align 8 dereferenceable(32) %7, ptr noundef nonnull align 8 dereferenceable(32) %10)
  store ptr getelementptr inbounds ({ [5 x ptr] }, ptr @_ZTVN12_GLOBAL__N_126FeaturePlaceHolderExpanderE, i64 0, i32 0, i64 2), ptr %8, align 8
  %11 = getelementptr inbounds i8, ptr %8, i64 8
  store ptr %2, ptr %11, align 8
  %12 = getelementptr inbounds i8, ptr %8, i64 16
  store ptr %3, ptr %12, align 8
  %13 = getelementptr inbounds i8, ptr %8, i64 24
  store ptr %4, ptr %13, align 8
  %14 = invoke noundef nonnull align 8 dereferenceable(32) ptr @_ZN21cmPlaceholderExpander15ExpandVariablesERNSt7__cxx1112basic_stringIcSt11char_traitsIcESaIcEEE(ptr noundef nonnull align 8 dereferenceable(8) %8, ptr noundef nonnull align 8 dereferenceable(32) %7)
          to label %15 unwind label %17

15:                                               ; preds = %6
  invoke void @_ZNSt7__cxx1112basic_stringIcSt11char_traitsIcESaIcEEC1ERKS4_(ptr noundef nonnull align 8 dereferenceable(32) %0, ptr noundef nonnull align 8 dereferenceable(32) %14)
          to label %16 unwind label %17

16:                                               ; preds = %15
  call void @_ZNSt7__cxx1112basic_stringIcSt11char_traitsIcESaIcEED1Ev(ptr noundef nonnull align 8 dereferenceable(32) %7) #19
  ret void

17:                                               ; preds = %15, %6
  %18 = landingpad { ptr, i32 }
          cleanup
  call void @_ZNSt7__cxx1112basic_stringIcSt11char_traitsIcESaIcEED1Ev(ptr noundef nonnull align 8 dereferenceable(32) %7) #19
  resume { ptr, i32 } %18
}